target datalayout = "e-m:e-p270:32:32-p271:32:32-p272:64:64-i64:64-i128:128-f80:128-n8:16:32:64-S128"
target triple = "x86_64-unknown-linux-gnu"

; Function Attrs: fn_ret_thunk_extern nounwind null_pointer_is_valid
define internal noundef i32 @yenta_get_status(ptr nocapture noundef readonly %0, ptr nocapture noundef writeonly %1) #2 align 16 {
  %3 = getelementptr i8, ptr %0, i64 -48
  %4 = load ptr, ptr %3, align 8
  %5 = getelementptr i8, ptr %4, i64 8
  %6 = tail call i32 asm sideeffect "movl $1,$0", "=r,*m,~{memory},~{dirflag},~{fpsr},~{flags}"(ptr elementtype(i32) %5) #10, !srcloc !6
  %7 = shl i32 %6, 1
  %8 = and i32 %7, 12288
  %9 = and i32 %6, 15360
  %10 = icmp eq i32 %9, 0
  %11 = select i1 %10, i32 16384, i32 0
  %12 = or disjoint i32 %11, %8
  %13 = and i32 %6, 6
  %14 = icmp eq i32 %13, 0
  %15 = select i1 %14, i32 0, i32 16384
  %16 = or i32 %12, %15
  %17 = and i32 %6, 32
  %18 = icmp eq i32 %17, 0
  br i1 %18, label %30, label %19

19:                                               ; preds = %2
  %20 = shl i32 %6, 10
  %21 = and i32 %20, 1024
  %22 = select i1 %14, i32 128, i32 0
  %23 = and i32 %6, 8
  %24 = icmp eq i32 %23, 0
  %25 = select i1 %24, i32 0, i32 320
  %26 = or disjoint i32 %21, %22
  %27 = or disjoint i32 %26, %25
  %28 = or disjoint i32 %27, %16
  %29 = or disjoint i32 %28, 2048
  br label %62

30:                                               ; preds = %2
  %31 = and i32 %6, 16
  %32 = icmp eq i32 %31, 0
  br i1 %32, label %62, label %33

33:                                               ; preds = %30
  %34 = load ptr, ptr %3, align 8
  %35 = getelementptr i8, ptr %34, i64 2049
  %36 = tail call i8 asm sideeffect "movb $1,$0", "=q,*m,~{memory},~{dirflag},~{fpsr},~{flags}"(ptr elementtype(i8) %35) #10, !srcloc !8
  %37 = zext i8 %36 to i32
  %38 = and i32 %37, 12
  %39 = icmp eq i32 %38, 12
  %40 = select i1 %39, i32 128, i32 0
  %41 = load ptr, ptr %3, align 8
  %42 = getelementptr i8, ptr %41, i64 2051
  %43 = tail call i8 asm sideeffect "movb $1,$0", "=q,*m,~{memory},~{dirflag},~{fpsr},~{flags}"(ptr elementtype(i8) %42) #10, !srcloc !8
  %44 = and i8 %43, 32
  %45 = icmp eq i8 %44, 0
  %46 = select i1 %45, i32 4, i32 10
  %47 = select i1 %45, i32 48, i32 1024
  %48 = shl nuw nsw i32 %37, %46
  %49 = and i32 %48, %47
  %50 = or disjoint i32 %40, %49
  %51 = or disjoint i32 %50, %16
  %52 = xor i32 %51, %47
  %53 = lshr i32 %37, 4
  %54 = and i32 %53, 1
  %55 = shl nuw nsw i32 %37, 1
  %56 = and i32 %55, 64
  %57 = shl nuw nsw i32 %37, 2
  %58 = and i32 %57, 256
  %59 = or disjoint i32 %56, %54
  %60 = or disjoint i32 %59, %58
  %61 = or disjoint i32 %60, %52
  br label %62

62:                                               ; preds = %33, %30, %19
  %63 = phi i32 [ %29, %19 ], [ %61, %33 ], [ %16, %30 ]
  store i32 %63, ptr %1, align 4
  ret i32 0
}

; Function Attrs: fn_ret_thunk_extern nounwind null_pointer_is_valid
define internal fastcc i32 @ti12xx_2nd_slot_empty(ptr nocapture noundef readonly %0) unnamed_addr #2 align 16 {
  %2 = alloca i32, align 4
  %3 = alloca i32, align 4
  call void @llvm.lifetime.start.p0(i64 4, ptr nonnull %3) #10
  store i32 0, ptr %3, align 4, !annotation !9
  %4 = load ptr, ptr %0, align 8
  %5 = getelementptr inbounds i8, ptr %4, i64 62
  %6 = load i16, ptr %5, align 2
  switch i16 %6, label %45 [
    i16 -21481, label %12
    i16 -21479, label %12
    i16 -21476, label %12
    i16 -21475, label %12
    i16 -21473, label %12
    i16 -21423, label %12
    i16 -21477, label %12
    i16 -21422, label %12
    i16 -21419, label %12
    i16 -21420, label %12
    i16 -21434, label %12
    i16 -32751, label %12
    i16 -21438, label %12
    i16 -32711, label %7
    i16 -32714, label %7
    i16 -21362, label %7
    i16 -21363, label %7
    i16 -32719, label %7
    i16 -21431, label %7
    i16 -21432, label %7
  ]

7:                                                ; preds = %1, %1, %1, %1, %1, %1, %1
  call void @llvm.lifetime.start.p0(i64 4, ptr nonnull %2) #10
  store i32 0, ptr %2, align 4, !annotation !9
  %8 = call i32 @pci_read_config_dword(ptr noundef %4, i32 noundef 128, ptr noundef nonnull %2) #10
  %9 = load i32, ptr %2, align 4
  call void @llvm.lifetime.end.p0(i64 4, ptr nonnull %2) #10
  %10 = and i32 %9, 268435456
  %11 = icmp eq i32 %10, 0
  br i1 %11, label %12, label %45

12:                                               ; preds = %7, %1, %1, %1, %1, %1, %1, %1, %1, %1, %1, %1, %1, %1
  %13 = load ptr, ptr %0, align 8
  %14 = getelementptr inbounds i8, ptr %13, i64 56
  %15 = load i32, ptr %14, align 8
  %16 = and i32 %15, -8
  %17 = getelementptr inbounds i8, ptr %13, i64 16
  %18 = load ptr, ptr %17, align 8
  %19 = and i32 %15, 7
  %20 = icmp eq i32 %19, 0
  %21 = zext i1 %20 to i32
  %22 = or disjoint i32 %16, %21
  %23 = call ptr @pci_get_slot(ptr noundef %18, i32 noundef %22) #10
  %24 = icmp eq ptr %23, null
  br i1 %24, label %45, label %25

25:                                               ; preds = %12
  %26 = load ptr, ptr %0, align 8
  %27 = getelementptr inbounds i8, ptr %26, i64 62
  %28 = load i16, ptr %27, align 2
  %29 = getelementptr inbounds i8, ptr %23, i64 62
  %30 = load i16, ptr %29, align 2
  %31 = icmp eq i16 %28, %30
  br i1 %31, label %32, label %43

32:                                               ; preds = %25
  %33 = getelementptr inbounds i8, ptr %23, i64 304
  %34 = load ptr, ptr %33, align 8
  %35 = icmp eq ptr %34, null
  br i1 %35, label %43, label %36

36:                                               ; preds = %32
  %37 = getelementptr inbounds i8, ptr %34, i64 64
  %38 = call i32 @yenta_get_status(ptr noundef %37, ptr noundef nonnull %3)
  %39 = load i32, ptr %3, align 4
  %40 = lshr i32 %39, 7
  %41 = and i32 %40, 1
  %42 = xor i32 %41, 1
  br label %43

43:                                               ; preds = %36, %32, %25
  %44 = phi i32 [ 1, %25 ], [ 1, %32 ], [ %42, %36 ]
  call void @pci_dev_put(ptr noundef nonnull %23) #10
  br label %45

45:                                               ; preds = %43, %12, %7, %1
  %46 = phi i32 [ %44, %43 ], [ 0, %7 ], [ 1, %1 ], [ 1, %12 ]
  call void @llvm.lifetime.end.p0(i64 4, ptr nonnull %3) #10
  ret i32 %46
}