; Function Attrs: fn_ret_thunk_extern nounwind null_pointer_is_valid
define internal fastcc i32 @ti12xx_2nd_slot_empty(ptr nocapture noundef readonly %0) unnamed_addr #2 align 16 {
  %2 = alloca i32, align 4
  %3 = load ptr, ptr %0, align 8
  %4 = getelementptr inbounds i8, ptr %3, i64 62
  %5 = load i16, ptr %4, align 2
  switch i16 %5, label %79 [
    i16 -21481, label %11
    i16 -21479, label %11
    i16 -21476, label %11
    i16 -21475, label %11
    i16 -21473, label %11
    i16 -21423, label %11
    i16 -21477, label %11
    i16 -21422, label %11
    i16 -21419, label %11
    i16 -21420, label %11
    i16 -21434, label %11
    i16 -32751, label %11
    i16 -21438, label %11
    i16 -32711, label %6
    i16 -32714, label %6
    i16 -21362, label %6
    i16 -21363, label %6
    i16 -32719, label %6
    i16 -21431, label %6
    i16 -21432, label %6
  ]

6:                                                ; preds = %1, %1, %1, %1, %1, %1, %1
  call void @llvm.lifetime.start.p0(i64 4, ptr nonnull %2) #10
  store i32 0, ptr %2, align 4, !annotation !9
  %7 = call i32 @pci_read_config_dword(ptr noundef %3, i32 noundef 128, ptr noundef nonnull %2) #10
  %8 = load i32, ptr %2, align 4
  call void @llvm.lifetime.end.p0(i64 4, ptr nonnull %2) #10
  %9 = and i32 %8, 268435456
  %10 = icmp eq i32 %9, 0
  br i1 %10, label %._crit_edge, label %79

._crit_edge:                                      ; preds = %6
  %.pre = load ptr, ptr %0, align 8
  br label %11

11:                                               ; preds = %._crit_edge, %1, %1, %1, %1, %1, %1, %1, %1, %1, %1, %1, %1, %1
  %12 = phi ptr [ %.pre, %._crit_edge ], [ %3, %1 ], [ %3, %1 ], [ %3, %1 ], [ %3, %1 ], [ %3, %1 ], [ %3, %1 ], [ %3, %1 ], [ %3, %1 ], [ %3, %1 ], [ %3, %1 ], [ %3, %1 ], [ %3, %1 ], [ %3, %1 ]
  %13 = getelementptr inbounds i8, ptr %12, i64 56
  %14 = load i32, ptr %13, align 8
  %15 = and i32 %14, -8
  %16 = getelementptr inbounds i8, ptr %12, i64 16
  %17 = load ptr, ptr %16, align 8
  %18 = and i32 %14, 7
  %19 = icmp eq i32 %18, 0
  %20 = zext i1 %19 to i32
  %21 = or disjoint i32 %15, %20
  %22 = call ptr @pci_get_slot(ptr noundef %17, i32 noundef %21) #10
  %23 = icmp eq ptr %22, null
  br i1 %23, label %79, label %24

24:                                               ; preds = %11
  %25 = load ptr, ptr %0, align 8
  %26 = getelementptr inbounds i8, ptr %25, i64 62
  %27 = load i16, ptr %26, align 2
  %28 = getelementptr inbounds i8, ptr %22, i64 62
  %29 = load i16, ptr %28, align 2
  %30 = icmp eq i16 %27, %29
  br i1 %30, label %31, label %77

31:                                               ; preds = %24
  %32 = getelementptr inbounds i8, ptr %22, i64 304
  %33 = load ptr, ptr %32, align 8
  %34 = icmp eq ptr %33, null
  br i1 %34, label %77, label %35

35:                                               ; preds = %31
  %36 = getelementptr i8, ptr %33, i64 16
  %37 = load ptr, ptr %36, align 8
  %38 = getelementptr i8, ptr %37, i64 8
  %39 = call i32 asm sideeffect "movl $1,$0", "=r,*m,~{memory},~{dirflag},~{fpsr},~{flags}"(ptr elementtype(i32) %38) #10, !srcloc !6
  %40 = and i32 %39, 15360
  %41 = icmp eq i32 %40, 0
  %42 = and i32 %39, 6
  %43 = icmp eq i32 %42, 0
  %44 = select i1 %43, i32 0, i32 16384
  %45 = select i1 %41, i32 16384, i32 %44
  %46 = and i32 %39, 32
  %47 = icmp eq i32 %46, 0
  br i1 %47, label %55, label %48

48:                                               ; preds = %35
  %49 = select i1 %43, i32 128, i32 0
  %50 = and i32 %39, 8
  %51 = icmp eq i32 %50, 0
  %52 = select i1 %51, i32 0, i32 320
  %53 = or disjoint i32 %49, %52
  %54 = or disjoint i32 %53, %45
  br label %yenta_get_status.exit

55:                                               ; preds = %35
  %56 = and i32 %39, 16
  %57 = icmp eq i32 %56, 0
  br i1 %57, label %yenta_get_status.exit, label %58

58:                                               ; preds = %55
  %59 = load ptr, ptr %36, align 8
  %60 = getelementptr i8, ptr %59, i64 2049
  %61 = call i8 asm sideeffect "movb $1,$0", "=q,*m,~{memory},~{dirflag},~{fpsr},~{flags}"(ptr elementtype(i8) %60) #10, !srcloc !8
  %62 = and i8 %61, 12
  %63 = icmp eq i8 %62, 12
  %64 = select i1 %63, i32 128, i32 0
  %65 = load ptr, ptr %36, align 8
  %66 = getelementptr i8, ptr %65, i64 2051
  %67 = call i8 asm sideeffect "movb $1,$0", "=q,*m,~{memory},~{dirflag},~{fpsr},~{flags}"(ptr elementtype(i8) %66) #10, !srcloc !8
  %68 = and i8 %67, 32
  %69 = icmp eq i8 %68, 0
  %70 = select i1 %69, i32 48, i32 1024
  %71 = or disjoint i32 %64, %70
  %72 = or disjoint i32 %71, %45
  br label %yenta_get_status.exit

yenta_get_status.exit:                            ; preds = %48, %55, %58
  %73 = phi i32 [ %54, %48 ], [ %72, %58 ], [ %45, %55 ]
  %74 = lshr i32 %73, 7
  %75 = and i32 %74, 1
  %76 = xor i32 %75, 1
  br label %77

77:                                               ; preds = %yenta_get_status.exit, %31, %24
  %78 = phi i32 [ 1, %24 ], [ 1, %31 ], [ %76, %yenta_get_status.exit ]
  call void @pci_dev_put(ptr noundef nonnull %22) #10
  br label %79

79:                                               ; preds = %77, %11, %6, %1
  %80 = phi i32 [ %78, %77 ], [ 0, %6 ], [ 1, %1 ], [ 1, %11 ]
  ret i32 %80
}